target datalayout = "e-m:e-p270:32:32-p271:32:32-p272:64:64-i64:64-i128:128-f80:128-n8:16:32:64-S128"
target triple = "x86_64-pc-linux-gnu"

%struct.pairingheap_node = type { ptr, ptr, ptr }
%struct.pairingheap = type { ptr, ptr, ptr }
%struct.ResourceOwnerDesc = type { ptr, i32, i32, ptr, ptr }
%struct.SnapshotData = type { i32, i32, i32, ptr, i32, ptr, i32, i8, i8, i8, i32, i32, ptr, i32, i32, %struct.pairingheap_node, i64 }
%struct.PGPROC = type { %struct.dlist_node, ptr, ptr, i32, %struct.Latch, i32, i32, i32, i32, %struct.anon, i32, i32, i32, i8, i8, i8, i8, %struct.proclist_node, %struct.proclist_node, ptr, ptr, i32, i32, %struct.pg_atomic_uint64, i32, i8, i64, i32, %struct.dlist_node, [16 x %struct.dlist_head], %struct.XidCacheStatus, %struct.XidCache, i8, %struct.pg_atomic_uint32, i32, i32, i8, %struct.pg_atomic_uint32, i32, i32, i64, i64, %struct.LWLock, ptr, ptr, i8, i32, ptr, %struct.dlist_head, %struct.dlist_node }
%struct.Latch = type { i32, i32, i8, i32 }
%struct.anon = type { i32, i32 }
%struct.proclist_node = type { i32, i32 }
%struct.pg_atomic_uint64 = type { i64 }
%struct.XidCacheStatus = type { i8, i8 }
%struct.XidCache = type { [64 x i32] }
%struct.pg_atomic_uint32 = type { i32 }
%struct.LWLock = type { i16, %struct.pg_atomic_uint32, %struct.proclist_head }
%struct.proclist_head = type { i32, i32 }
%struct.dlist_head = type { %struct.dlist_node }
%struct.dlist_node = type { ptr, ptr }

@TransactionXmin = dso_local global i32 3, align 4
@RegisteredSnapshots = internal global %struct.pairingheap { ptr @xmin_cmp, ptr null, ptr null }, align 8
@ActiveSnapshot = internal global ptr null, align 8
@MyProc = external global ptr, align 8
@snapshot_resowner_desc = internal constant %struct.ResourceOwnerDesc { ptr @.str.63, i32 3, i32 500, ptr @ResOwnerReleaseSnapshot, ptr null }, align 8

; Function Attrs: nounwind uwtable
define internal void @SnapshotResetXmin() #0 {
  %1 = alloca ptr, align 8
  %2 = alloca i32, align 4
  %3 = alloca i32, align 4
  %4 = alloca i32, align 4
  call void @llvm.lifetime.start.p0(i64 8, ptr %1) #14
  %5 = load ptr, ptr @ActiveSnapshot, align 8
  %6 = icmp ne ptr %5, null
  br i1 %6, label %7, label %8

7:                                                ; preds = %0
  store i32 1, ptr %2, align 4
  br label %37

8:                                                ; preds = %0
  %9 = load ptr, ptr getelementptr inbounds nuw (%struct.pairingheap, ptr @RegisteredSnapshots, i32 0, i32 2), align 8
  %10 = icmp eq ptr %9, null
  br i1 %10, label %11, label %14

11:                                               ; preds = %8
  store i32 0, ptr @TransactionXmin, align 4
  %12 = load ptr, ptr @MyProc, align 8
  %13 = getelementptr inbounds nuw %struct.PGPROC, ptr %12, i32 0, i32 6
  store i32 0, ptr %13, align 8
  store i32 1, ptr %2, align 4
  br label %37

14:                                               ; preds = %8
  br label %15

15:                                               ; preds = %14
  br label %16

16:                                               ; preds = %15
  br label %17

17:                                               ; preds = %16
  store i32 1, ptr %3, align 4
  br label %18

18:                                               ; preds = %17
  br label %19

19:                                               ; preds = %18
  br label %20

20:                                               ; preds = %19
  store i32 1, ptr %4, align 4
  %21 = call ptr @pairingheap_first(ptr noundef @RegisteredSnapshots)
  %22 = getelementptr inbounds i8, ptr %21, i64 -72
  store ptr %22, ptr %1, align 8
  %23 = load ptr, ptr @MyProc, align 8
  %24 = getelementptr inbounds nuw %struct.PGPROC, ptr %23, i32 0, i32 6
  %25 = load i32, ptr %24, align 8
  %26 = load ptr, ptr %1, align 8
  %27 = getelementptr inbounds nuw %struct.SnapshotData, ptr %26, i32 0, i32 1
  %28 = load i32, ptr %27, align 4
  %29 = call zeroext i1 @TransactionIdPrecedes(i32 noundef %25, i32 noundef %28)
  br i1 %29, label %30, label %36

30:                                               ; preds = %20
  %31 = load ptr, ptr %1, align 8
  %32 = getelementptr inbounds nuw %struct.SnapshotData, ptr %31, i32 0, i32 1
  %33 = load i32, ptr %32, align 4
  store i32 %33, ptr @TransactionXmin, align 4
  %34 = load ptr, ptr @MyProc, align 8
  %35 = getelementptr inbounds nuw %struct.PGPROC, ptr %34, i32 0, i32 6
  store i32 %33, ptr %35, align 8
  br label %36

36:                                               ; preds = %30, %20
  store i32 0, ptr %2, align 4
  br label %37

37:                                               ; preds = %36, %11, %7
  call void @llvm.lifetime.end.p0(i64 8, ptr %1) #14
  %38 = load i32, ptr %2, align 4
  switch i32 %38, label %40 [
    i32 0, label %39
    i32 1, label %39
  ]

39:                                               ; preds = %37, %37
  ret void

40:                                               ; preds = %37
  unreachable
}

; Function Attrs: nounwind uwtable
define internal void @FreeSnapshot(ptr noundef %0) #0 {
  %2 = alloca ptr, align 8
  store ptr %0, ptr %2, align 8
  %3 = load ptr, ptr %2, align 8
  call void @pfree(ptr noundef %3)
  ret void
}

; Function Attrs: inlinehint nounwind uwtable
define internal i64 @PointerGetDatum(ptr noundef %0) #4 {
  %2 = alloca ptr, align 8
  store ptr %0, ptr %2, align 8
  %3 = load ptr, ptr %2, align 8
  %4 = ptrtoint ptr %3 to i64
  ret i64 %4
}

; Function Attrs: nounwind uwtable
define internal void @UnregisterSnapshotNoOwner(ptr noundef %0) #0 {
  %2 = alloca ptr, align 8
  store ptr %0, ptr %2, align 8
  %3 = load ptr, ptr %2, align 8
  %4 = getelementptr inbounds nuw %struct.SnapshotData, ptr %3, i32 0, i32 14
  %5 = load i32, ptr %4, align 4
  %6 = add i32 %5, -1
  store i32 %6, ptr %4, align 4
  %7 = load ptr, ptr %2, align 8
  %8 = getelementptr inbounds nuw %struct.SnapshotData, ptr %7, i32 0, i32 14
  %9 = load i32, ptr %8, align 4
  %10 = icmp eq i32 %9, 0
  br i1 %10, label %11, label %14

11:                                               ; preds = %1
  %12 = load ptr, ptr %2, align 8
  %13 = getelementptr inbounds nuw %struct.SnapshotData, ptr %12, i32 0, i32 15
  call void @pairingheap_remove(ptr noundef @RegisteredSnapshots, ptr noundef %13)
  br label %14

14:                                               ; preds = %11, %1
  %15 = load ptr, ptr %2, align 8
  %16 = getelementptr inbounds nuw %struct.SnapshotData, ptr %15, i32 0, i32 14
  %17 = load i32, ptr %16, align 4
  %18 = icmp eq i32 %17, 0
  br i1 %18, label %19, label %26

19:                                               ; preds = %14
  %20 = load ptr, ptr %2, align 8
  %21 = getelementptr inbounds nuw %struct.SnapshotData, ptr %20, i32 0, i32 13
  %22 = load i32, ptr %21, align 8
  %23 = icmp eq i32 %22, 0
  br i1 %23, label %24, label %26

24:                                               ; preds = %19
  %25 = load ptr, ptr %2, align 8
  call void @FreeSnapshot(ptr noundef %25)
  call void @SnapshotResetXmin()
  br label %26

26:                                               ; preds = %24, %19, %14
  ret void
}

; Function Attrs: inlinehint nounwind uwtable
define internal void @ResourceOwnerForgetSnapshot(ptr noundef %0, ptr noundef %1) #4 {
  %3 = alloca ptr, align 8
  %4 = alloca ptr, align 8
  store ptr %0, ptr %3, align 8
  store ptr %1, ptr %4, align 8
  %5 = load ptr, ptr %3, align 8
  %6 = load ptr, ptr %4, align 8
  %7 = call i64 @PointerGetDatum(ptr noundef %6)
  call void @ResourceOwnerForget(ptr noundef %5, i64 noundef %7, ptr noundef @snapshot_resowner_desc)
  ret void
}

; Function Attrs: nounwind uwtable
define dso_local void @UnregisterSnapshotFromOwner(ptr noundef %0, ptr noundef %1) #0 {
  %3 = alloca ptr, align 8
  %4 = alloca ptr, align 8
  store ptr %0, ptr %3, align 8
  store ptr %1, ptr %4, align 8
  %5 = load ptr, ptr %3, align 8
  %6 = icmp eq ptr %5, null
  br i1 %6, label %7, label %8

7:                                                ; preds = %2
  br label %12

8:                                                ; preds = %2
  %9 = load ptr, ptr %4, align 8
  %10 = load ptr, ptr %3, align 8
  call void @ResourceOwnerForgetSnapshot(ptr noundef %9, ptr noundef %10)
  %11 = load ptr, ptr %3, align 8
  call void @UnregisterSnapshotNoOwner(ptr noundef %11)
  br label %12

12:                                               ; preds = %8, %7
  ret void
}