; Function Attrs: nounwind uwtable
define dso_local void @UnregisterSnapshotFromOwner(ptr noundef %0, ptr noundef %1) local_unnamed_addr #0 {
  %3 = icmp eq ptr %0, null
  br i1 %3, label %UnregisterSnapshotNoOwner.exit, label %4

4:                                                ; preds = %2
  %5 = ptrtoint ptr %0 to i64
  tail call void @ResourceOwnerForget(ptr noundef %1, i64 noundef %5, ptr noundef nonnull @snapshot_resowner_desc) #18
  %6 = getelementptr inbounds nuw i8, ptr %0, i64 68
  %7 = load i32, ptr %6, align 4
  %8 = add i32 %7, -1
  store i32 %8, ptr %6, align 4
  %9 = icmp eq i32 %8, 0
  br i1 %9, label %10, label %UnregisterSnapshotNoOwner.exit

10:                                               ; preds = %4
  %11 = getelementptr inbounds nuw i8, ptr %0, i64 72
  tail call void @pairingheap_remove(ptr noundef nonnull @RegisteredSnapshots, ptr noundef nonnull %11) #18
  %.pr.i = load i32, ptr %6, align 4
  %12 = icmp eq i32 %.pr.i, 0
  br i1 %12, label %13, label %UnregisterSnapshotNoOwner.exit

13:                                               ; preds = %10
  %14 = getelementptr inbounds nuw i8, ptr %0, i64 64
  %15 = load i32, ptr %14, align 8
  %16 = icmp eq i32 %15, 0
  br i1 %16, label %17, label %UnregisterSnapshotNoOwner.exit

17:                                               ; preds = %13
  tail call void @pfree(ptr noundef nonnull %0) #18
  %18 = load ptr, ptr @ActiveSnapshot, align 8
  %.not.i.i = icmp eq ptr %18, null
  br i1 %.not.i.i, label %19, label %UnregisterSnapshotNoOwner.exit

19:                                               ; preds = %17
  %20 = load ptr, ptr getelementptr inbounds nuw (i8, ptr @RegisteredSnapshots, i64 16), align 8
  %21 = icmp eq ptr %20, null
  br i1 %21, label %.sink.split.i.i, label %22

22:                                               ; preds = %19
  %23 = tail call ptr @pairingheap_first(ptr noundef nonnull @RegisteredSnapshots) #18
  %24 = load ptr, ptr @MyProc, align 8
  %25 = getelementptr inbounds nuw i8, ptr %24, i64 56
  %26 = load i32, ptr %25, align 8
  %27 = getelementptr inbounds i8, ptr %23, i64 -68
  %28 = load i32, ptr %27, align 4
  %29 = tail call zeroext i1 @TransactionIdPrecedes(i32 noundef %26, i32 noundef %28) #18
  br i1 %29, label %30, label %UnregisterSnapshotNoOwner.exit

30:                                               ; preds = %22
  %31 = load i32, ptr %27, align 4
  br label %.sink.split.i.i

.sink.split.i.i:                                  ; preds = %30, %19
  %.sink4.i.i = phi i32 [ %31, %30 ], [ 0, %19 ]
  store i32 %.sink4.i.i, ptr @TransactionXmin, align 4
  %32 = load ptr, ptr @MyProc, align 8
  %33 = getelementptr inbounds nuw i8, ptr %32, i64 56
  store i32 %.sink4.i.i, ptr %33, align 8
  br label %UnregisterSnapshotNoOwner.exit

UnregisterSnapshotNoOwner.exit:                   ; preds = %.sink.split.i.i, %22, %17, %13, %10, %4, %2
  ret void
}